target datalayout = "e-m:e-p270:32:32-p271:32:32-p272:64:64-i64:64-i128:128-f80:128-n8:16:32:64-S128"
target triple = "x86_64-pc-linux-gnu"

%struct.Vec_Int_t_ = type { i32, i32, ptr }
%struct.Abc_Ntk_t_ = type { i32, i32, ptr, ptr, ptr, ptr, ptr, ptr, ptr, ptr, ptr, ptr, ptr, [11 x i32], i32, i32, i32, i32, ptr, i32, ptr, ptr, i32, i32, i32, double, i32, %struct.Vec_Int_t_, ptr, ptr, ptr, ptr, ptr, float, i32, ptr, ptr, ptr, ptr, ptr, ptr, ptr, ptr, ptr, ptr, ptr, ptr, ptr, ptr, ptr, ptr, ptr, ptr, ptr, ptr, ptr, ptr }
%struct.Vec_Ptr_t_ = type { i32, i32, ptr }
%struct.DdManager = type { %struct.DdNode, ptr, ptr, ptr, ptr, ptr, ptr, ptr, i32, i32, double, double, double, i32, i32, i32, i32, i32, i32, ptr, ptr, %struct.DdSubtable, i32, i32, i32, i32, i32, i32, i32, double, i32, i32, i32, ptr, i64, double, i32, ptr, ptr, ptr, ptr, ptr, ptr, ptr, i32, ptr, ptr, ptr, ptr, ptr, ptr, i32, i32, i32, double, i32, i32, i32, i32, double, double, i32, i32, i32, i32, i32, i32, i32, i32, i32, ptr, ptr, i32, i32, i32, i32, i32, i32, ptr, ptr, ptr, ptr, ptr, ptr, ptr, ptr, i32, i64, i64, i64, i32, i64, i64, double, double, double, double, double, double, i32, ptr, ptr, i64 }
%struct.DdNode = type { i32, i32, ptr, %union.anon.1, i64 }
%union.anon.1 = type { %struct.DdChildren }
%struct.DdChildren = type { ptr, ptr }
%struct.DdSubtable = type { ptr, i32, i32, i32, i32, i32, i32, i32, i32, i32, i32, i32 }

@.str = private unnamed_addr constant [7 x i8] c".i %d\0A\00", align 1
@.str.1 = private unnamed_addr constant [7 x i8] c".o %d\0A\00", align 1
@.str.2 = private unnamed_addr constant [5 x i8] c".ilb\00", align 1
@.str.3 = private unnamed_addr constant [4 x i8] c" %s\00", align 1
@.str.4 = private unnamed_addr constant [2 x i8] c"\0A\00", align 1
@.str.5 = private unnamed_addr constant [4 x i8] c".ob\00", align 1
@.str.6 = private unnamed_addr constant [7 x i8] c".p %d\0A\00", align 1
@.str.8 = private unnamed_addr constant [4 x i8] c".e\0A\00", align 1
@.str.18 = private unnamed_addr constant [3 x i8] c"%c\00", align 1
@.str.19 = private unnamed_addr constant [2 x i8] c" \00", align 1

; Function Attrs: inlinehint nounwind uwtable
define internal ptr @Vec_PtrEntry(ptr noundef %0, i32 noundef %1) #2 {
  %3 = alloca ptr, align 8
  %4 = alloca i32, align 4
  store ptr %0, ptr %3, align 8, !tbaa !58
  store i32 %1, ptr %4, align 4, !tbaa !10
  %5 = load ptr, ptr %3, align 8, !tbaa !58
  %6 = getelementptr inbounds nuw %struct.Vec_Ptr_t_, ptr %5, i32 0, i32 2
  %7 = load ptr, ptr %6, align 8, !tbaa !47
  %8 = load i32, ptr %4, align 4, !tbaa !10
  %9 = sext i32 %8 to i64
  %10 = getelementptr inbounds ptr, ptr %7, i64 %9
  %11 = load ptr, ptr %10, align 8, !tbaa !50
  ret ptr %11
}

; Function Attrs: inlinehint nounwind uwtable
define internal i32 @Vec_PtrSize(ptr noundef %0) #2 {
  %2 = alloca ptr, align 8
  store ptr %0, ptr %2, align 8, !tbaa !58
  %3 = load ptr, ptr %2, align 8, !tbaa !58
  %4 = getelementptr inbounds nuw %struct.Vec_Ptr_t_, ptr %3, i32 0, i32 1
  %5 = load i32, ptr %4, align 4, !tbaa !73
  ret i32 %5
}

; Function Attrs: inlinehint nounwind uwtable
define internal ptr @Abc_NtkCo(ptr noundef %0, i32 noundef %1) #2 {
  %3 = alloca ptr, align 8
  %4 = alloca i32, align 4
  store ptr %0, ptr %3, align 8, !tbaa !8
  store i32 %1, ptr %4, align 4, !tbaa !10
  %5 = load ptr, ptr %3, align 8, !tbaa !8
  %6 = getelementptr inbounds nuw %struct.Abc_Ntk_t_, ptr %5, i32 0, i32 9
  %7 = load ptr, ptr %6, align 8, !tbaa !29
  %8 = load i32, ptr %4, align 4, !tbaa !10
  %9 = call ptr @Vec_PtrEntry(ptr noundef %7, i32 noundef %8)
  ret ptr %9
}

; Function Attrs: inlinehint nounwind uwtable
define internal ptr @Abc_NtkCi(ptr noundef %0, i32 noundef %1) #2 {
  %3 = alloca ptr, align 8
  %4 = alloca i32, align 4
  store ptr %0, ptr %3, align 8, !tbaa !8
  store i32 %1, ptr %4, align 4, !tbaa !10
  %5 = load ptr, ptr %3, align 8, !tbaa !8
  %6 = getelementptr inbounds nuw %struct.Abc_Ntk_t_, ptr %5, i32 0, i32 8
  %7 = load ptr, ptr %6, align 8, !tbaa !51
  %8 = load i32, ptr %4, align 4, !tbaa !10
  %9 = call ptr @Vec_PtrEntry(ptr noundef %7, i32 noundef %8)
  ret ptr %9
}

; Function Attrs: inlinehint nounwind uwtable
define internal i32 @Abc_NtkCiNum(ptr noundef %0) #2 {
  %2 = alloca ptr, align 8
  store ptr %0, ptr %2, align 8, !tbaa !8
  %3 = load ptr, ptr %2, align 8, !tbaa !8
  %4 = getelementptr inbounds nuw %struct.Abc_Ntk_t_, ptr %3, i32 0, i32 8
  %5 = load ptr, ptr %4, align 8, !tbaa !51
  %6 = call i32 @Vec_PtrSize(ptr noundef %5)
  ret i32 %6
}

; Function Attrs: nounwind uwtable
define i32 @Io_WriteMoPlaOneIntMintermsM(ptr noundef %0, ptr noundef %1, ptr noundef %2, ptr noundef %3, i32 noundef %4) #0 {
  %6 = alloca ptr, align 8
  %7 = alloca ptr, align 8
  %8 = alloca ptr, align 8
  %9 = alloca ptr, align 8
  %10 = alloca i32, align 4
  %11 = alloca ptr, align 8
  %12 = alloca ptr, align 8
  %13 = alloca ptr, align 8
  %14 = alloca i32, align 4
  %15 = alloca i32, align 4
  %16 = alloca i32, align 4
  store ptr %0, ptr %6, align 8, !tbaa !3
  store ptr %1, ptr %7, align 8, !tbaa !8
  store ptr %2, ptr %8, align 8, !tbaa !56
  store ptr %3, ptr %9, align 8, !tbaa !60
  store i32 %4, ptr %10, align 4, !tbaa !10
  call void @llvm.lifetime.start.p0(i64 8, ptr %11) #9
  call void @llvm.lifetime.start.p0(i64 8, ptr %12) #9
  %17 = load ptr, ptr %8, align 8, !tbaa !56
  %18 = getelementptr inbounds nuw %struct.DdManager, ptr %17, i32 0, i32 15
  %19 = load i32, ptr %18, align 8, !tbaa !76
  %20 = sext i32 %19 to i64
  %21 = call noalias ptr @calloc(i64 noundef %20, i64 noundef 4) #11
  store ptr %21, ptr %12, align 8, !tbaa !88
  call void @llvm.lifetime.start.p0(i64 8, ptr %13) #9
  %22 = load ptr, ptr %8, align 8, !tbaa !56
  %23 = load ptr, ptr %9, align 8, !tbaa !60
  %24 = load ptr, ptr %8, align 8, !tbaa !56
  %25 = getelementptr inbounds nuw %struct.DdManager, ptr %24, i32 0, i32 41
  %26 = load ptr, ptr %25, align 8, !tbaa !89
  %27 = load ptr, ptr %8, align 8, !tbaa !56
  %28 = getelementptr inbounds nuw %struct.DdManager, ptr %27, i32 0, i32 15
  %29 = load i32, ptr %28, align 8, !tbaa !76
  %30 = load i32, ptr %10, align 4, !tbaa !10
  %31 = call ptr @Cudd_bddPickArbitraryMinterms(ptr noundef %22, ptr noundef %23, ptr noundef %26, i32 noundef %29, i32 noundef %30)
  store ptr %31, ptr %13, align 8, !tbaa !90
  call void @llvm.lifetime.start.p0(i64 4, ptr %14) #9
  call void @llvm.lifetime.start.p0(i64 4, ptr %15) #9
  call void @llvm.lifetime.start.p0(i64 4, ptr %16) #9
  %32 = load ptr, ptr %7, align 8, !tbaa !8
  %33 = call i32 @Abc_NtkCiNum(ptr noundef %32)
  store i32 %33, ptr %16, align 4, !tbaa !10
  %34 = load ptr, ptr %6, align 8, !tbaa !3
  %35 = load i32, ptr %16, align 4, !tbaa !10
  %36 = call i32 (ptr, ptr, ...) @fprintf(ptr noundef %34, ptr noundef @.str, i32 noundef %35) #9
  %37 = load ptr, ptr %6, align 8, !tbaa !3
  %38 = call i32 (ptr, ptr, ...) @fprintf(ptr noundef %37, ptr noundef @.str.1, i32 noundef 1) #9
  %39 = load ptr, ptr %6, align 8, !tbaa !3
  %40 = call i32 (ptr, ptr, ...) @fprintf(ptr noundef %39, ptr noundef @.str.2) #9
  store i32 0, ptr %14, align 4, !tbaa !10
  br label %41

41:                                               ; preds = %57, %5
  %42 = load i32, ptr %14, align 4, !tbaa !10
  %43 = load ptr, ptr %7, align 8, !tbaa !8
  %44 = call i32 @Abc_NtkCiNum(ptr noundef %43)
  %45 = icmp slt i32 %42, %44
  br i1 %45, label %46, label %50

46:                                               ; preds = %41
  %47 = load ptr, ptr %7, align 8, !tbaa !8
  %48 = load i32, ptr %14, align 4, !tbaa !10
  %49 = call ptr @Abc_NtkCi(ptr noundef %47, i32 noundef %48)
  store ptr %49, ptr %11, align 8, !tbaa !12
  br label %50

50:                                               ; preds = %46, %41
  %51 = phi i1 [ false, %41 ], [ true, %46 ]
  br i1 %51, label %52, label %60

52:                                               ; preds = %50
  %53 = load ptr, ptr %6, align 8, !tbaa !3
  %54 = load ptr, ptr %11, align 8, !tbaa !12
  %55 = call ptr @Abc_ObjName(ptr noundef %54)
  %56 = call i32 (ptr, ptr, ...) @fprintf(ptr noundef %53, ptr noundef @.str.3, ptr noundef %55) #9
  br label %57

57:                                               ; preds = %52
  %58 = load i32, ptr %14, align 4, !tbaa !10
  %59 = add nsw i32 %58, 1
  store i32 %59, ptr %14, align 4, !tbaa !10
  br label %41, !llvm.loop !91

60:                                               ; preds = %50
  %61 = load ptr, ptr %6, align 8, !tbaa !3
  %62 = call i32 (ptr, ptr, ...) @fprintf(ptr noundef %61, ptr noundef @.str.4) #9
  %63 = load ptr, ptr %6, align 8, !tbaa !3
  %64 = call i32 (ptr, ptr, ...) @fprintf(ptr noundef %63, ptr noundef @.str.5) #9
  %65 = load ptr, ptr %6, align 8, !tbaa !3
  %66 = load ptr, ptr %7, align 8, !tbaa !8
  %67 = call ptr @Abc_NtkCo(ptr noundef %66, i32 noundef 0)
  %68 = call ptr @Abc_ObjName(ptr noundef %67)
  %69 = call i32 (ptr, ptr, ...) @fprintf(ptr noundef %65, ptr noundef @.str.3, ptr noundef %68) #9
  %70 = load ptr, ptr %6, align 8, !tbaa !3
  %71 = call i32 (ptr, ptr, ...) @fprintf(ptr noundef %70, ptr noundef @.str.4) #9
  %72 = load ptr, ptr %6, align 8, !tbaa !3
  %73 = load i32, ptr %10, align 4, !tbaa !10
  %74 = call i32 (ptr, ptr, ...) @fprintf(ptr noundef %72, ptr noundef @.str.6, i32 noundef %73) #9
  store i32 0, ptr %15, align 4, !tbaa !10
  br label %75

75:                                               ; preds = %136, %60
  %76 = load i32, ptr %15, align 4, !tbaa !10
  %77 = load i32, ptr %10, align 4, !tbaa !10
  %78 = icmp slt i32 %76, %77
  br i1 %78, label %79, label %139

79:                                               ; preds = %75
  %80 = load ptr, ptr %8, align 8, !tbaa !56
  %81 = load ptr, ptr %13, align 8, !tbaa !90
  %82 = load i32, ptr %15, align 4, !tbaa !10
  %83 = sext i32 %82 to i64
  %84 = getelementptr inbounds ptr, ptr %81, i64 %83
  %85 = load ptr, ptr %84, align 8, !tbaa !60
  %86 = load ptr, ptr %12, align 8, !tbaa !88
  %87 = call i32 @Cudd_BddToCubeArray(ptr noundef %80, ptr noundef %85, ptr noundef %86)
  store i32 0, ptr %14, align 4, !tbaa !10
  br label %88

88:                                               ; preds = %126, %79
  %89 = load i32, ptr %14, align 4, !tbaa !10
  %90 = load ptr, ptr %7, align 8, !tbaa !8
  %91 = call i32 @Abc_NtkCiNum(ptr noundef %90)
  %92 = icmp slt i32 %89, %91
  br i1 %92, label %93, label %129

93:                                               ; preds = %88
  %94 = load ptr, ptr %12, align 8, !tbaa !88
  %95 = load i32, ptr %14, align 4, !tbaa !10
  %96 = sext i32 %95 to i64
  %97 = getelementptr inbounds i32, ptr %94, i64 %96
  %98 = load i32, ptr %97, align 4, !tbaa !10
  %99 = icmp eq i32 %98, 0
  br i1 %99, label %100, label %103

100:                                              ; preds = %93
  %101 = load ptr, ptr %6, align 8, !tbaa !3
  %102 = call i32 (ptr, ptr, ...) @fprintf(ptr noundef %101, ptr noundef @.str.18, i32 noundef 48) #9
  br label %125

103:                                              ; preds = %93
  %104 = load ptr, ptr %12, align 8, !tbaa !88
  %105 = load i32, ptr %14, align 4, !tbaa !10
  %106 = sext i32 %105 to i64
  %107 = getelementptr inbounds i32, ptr %104, i64 %106
  %108 = load i32, ptr %107, align 4, !tbaa !10
  %109 = icmp eq i32 %108, 1
  br i1 %109, label %110, label %113

110:                                              ; preds = %103
  %111 = load ptr, ptr %6, align 8, !tbaa !3
  %112 = call i32 (ptr, ptr, ...) @fprintf(ptr noundef %111, ptr noundef @.str.18, i32 noundef 49) #9
  br label %124

113:                                              ; preds = %103
  %114 = load ptr, ptr %12, align 8, !tbaa !88
  %115 = load i32, ptr %14, align 4, !tbaa !10
  %116 = sext i32 %115 to i64
  %117 = getelementptr inbounds i32, ptr %114, i64 %116
  %118 = load i32, ptr %117, align 4, !tbaa !10
  %119 = icmp eq i32 %118, 2
  br i1 %119, label %120, label %123

120:                                              ; preds = %113
  %121 = load ptr, ptr %6, align 8, !tbaa !3
  %122 = call i32 (ptr, ptr, ...) @fprintf(ptr noundef %121, ptr noundef @.str.18, i32 noundef 45) #9
  br label %123

123:                                              ; preds = %120, %113
  br label %124

124:                                              ; preds = %123, %110
  br label %125

125:                                              ; preds = %124, %100
  br label %126

126:                                              ; preds = %125
  %127 = load i32, ptr %14, align 4, !tbaa !10
  %128 = add nsw i32 %127, 1
  store i32 %128, ptr %14, align 4, !tbaa !10
  br label %88, !llvm.loop !92

129:                                              ; preds = %88
  %130 = load ptr, ptr %6, align 8, !tbaa !3
  %131 = call i32 (ptr, ptr, ...) @fprintf(ptr noundef %130, ptr noundef @.str.19) #9
  %132 = load ptr, ptr %6, align 8, !tbaa !3
  %133 = call i32 (ptr, ptr, ...) @fprintf(ptr noundef %132, ptr noundef @.str.18, i32 noundef 49) #9
  %134 = load ptr, ptr %6, align 8, !tbaa !3
  %135 = call i32 (ptr, ptr, ...) @fprintf(ptr noundef %134, ptr noundef @.str.4) #9
  br label %136

136:                                              ; preds = %129
  %137 = load i32, ptr %15, align 4, !tbaa !10
  %138 = add nsw i32 %137, 1
  store i32 %138, ptr %15, align 4, !tbaa !10
  br label %75, !llvm.loop !93

139:                                              ; preds = %75
  %140 = load ptr, ptr %6, align 8, !tbaa !3
  %141 = call i32 (ptr, ptr, ...) @fprintf(ptr noundef %140, ptr noundef @.str.8) #9
  %142 = load ptr, ptr %13, align 8, !tbaa !90
  %143 = icmp ne ptr %142, null
  br i1 %143, label %144, label %146

144:                                              ; preds = %139
  %145 = load ptr, ptr %13, align 8, !tbaa !90
  call void @free(ptr noundef %145) #9
  store ptr null, ptr %13, align 8, !tbaa !90
  br label %147

146:                                              ; preds = %139
  br label %147

147:                                              ; preds = %146, %144
  %148 = load ptr, ptr %12, align 8, !tbaa !88
  %149 = icmp ne ptr %148, null
  br i1 %149, label %150, label %152

150:                                              ; preds = %147
  %151 = load ptr, ptr %12, align 8, !tbaa !88
  call void @free(ptr noundef %151) #9
  store ptr null, ptr %12, align 8, !tbaa !88
  br label %153

152:                                              ; preds = %147
  br label %153

153:                                              ; preds = %152, %150
  call void @llvm.lifetime.end.p0(i64 4, ptr %16) #9
  call void @llvm.lifetime.end.p0(i64 4, ptr %15) #9
  call void @llvm.lifetime.end.p0(i64 4, ptr %14) #9
  call void @llvm.lifetime.end.p0(i64 8, ptr %13) #9
  call void @llvm.lifetime.end.p0(i64 8, ptr %12) #9
  call void @llvm.lifetime.end.p0(i64 8, ptr %11) #9
  ret i32 1
}