; Function Attrs: nounwind uwtable
define noundef i32 @Io_WriteMoPlaOneIntMintermsM(ptr noundef captures(none) %0, ptr noundef readonly captures(none) %1, ptr noundef %2, ptr noundef %3, i32 noundef %4) local_unnamed_addr #0 {
  %6 = getelementptr inbounds nuw i8, ptr %2, i64 136
  %7 = load i32, ptr %6, align 8, !tbaa !75
  %8 = sext i32 %7 to i64
  %9 = tail call noalias ptr @calloc(i64 noundef %8, i64 noundef 4) #14
  %10 = getelementptr inbounds nuw i8, ptr %2, i64 344
  %11 = load ptr, ptr %10, align 8, !tbaa !87
  %12 = tail call ptr @Cudd_bddPickArbitraryMinterms(ptr noundef %2, ptr noundef %3, ptr noundef %11, i32 noundef %7, i32 noundef %4) #11
  %13 = getelementptr i8, ptr %1, i64 56
  %.val65 = load ptr, ptr %13, align 8, !tbaa !38
  %14 = getelementptr i8, ptr %.val65, i64 4
  %.val65.val = load i32, ptr %14, align 4, !tbaa !24
  %15 = tail call i32 (ptr, ptr, ...) @fprintf(ptr noundef %0, ptr noundef nonnull @.str, i32 noundef %.val65.val) #11
  %16 = tail call i32 (ptr, ptr, ...) @fprintf(ptr noundef %0, ptr noundef nonnull @.str.1, i32 noundef 1) #11
  %17 = tail call i64 @fwrite(ptr nonnull @.str.2, i64 4, i64 1, ptr %0)
  %.val6467 = load ptr, ptr %13, align 8, !tbaa !38
  %18 = getelementptr i8, ptr %.val6467, i64 4
  %.val64.val68 = load i32, ptr %18, align 4, !tbaa !24
  %19 = icmp sgt i32 %.val64.val68, 0
  br i1 %19, label %.lr.ph, label %.critedge

.lr.ph:                                           ; preds = %5, %.lr.ph
  %indvars.iv = phi i64 [ %indvars.iv.next, %.lr.ph ], [ 0, %5 ]
  %.val6470 = phi ptr [ %.val64, %.lr.ph ], [ %.val6467, %5 ]
  %20 = getelementptr i8, ptr %.val6470, i64 8
  %.val66.val = load ptr, ptr %20, align 8, !tbaa !26
  %21 = getelementptr inbounds nuw ptr, ptr %.val66.val, i64 %indvars.iv
  %22 = load ptr, ptr %21, align 8, !tbaa !27
  %23 = tail call ptr @Abc_ObjName(ptr noundef %22) #11
  %24 = tail call i32 (ptr, ptr, ...) @fprintf(ptr noundef %0, ptr noundef nonnull @.str.3, ptr noundef %23) #11
  %indvars.iv.next = add nuw nsw i64 %indvars.iv, 1
  %.val64 = load ptr, ptr %13, align 8, !tbaa !38
  %25 = getelementptr i8, ptr %.val64, i64 4
  %.val64.val = load i32, ptr %25, align 4, !tbaa !24
  %26 = sext i32 %.val64.val to i64
  %27 = icmp slt i64 %indvars.iv.next, %26
  br i1 %27, label %.lr.ph, label %.critedge, !llvm.loop !88

.critedge:                                        ; preds = %.lr.ph, %5
  %fputc = tail call i32 @fputc(i32 10, ptr %0)
  %28 = tail call i64 @fwrite(ptr nonnull @.str.5, i64 3, i64 1, ptr %0)
  %29 = getelementptr i8, ptr %1, i64 64
  %.val = load ptr, ptr %29, align 8, !tbaa !3
  %30 = getelementptr i8, ptr %.val, i64 8
  %.val.val = load ptr, ptr %30, align 8, !tbaa !26
  %31 = load ptr, ptr %.val.val, align 8, !tbaa !27
  %32 = tail call ptr @Abc_ObjName(ptr noundef %31) #11
  %33 = tail call i32 (ptr, ptr, ...) @fprintf(ptr noundef %0, ptr noundef nonnull @.str.3, ptr noundef %32) #11
  %fputc55 = tail call i32 @fputc(i32 10, ptr %0)
  %34 = tail call i32 (ptr, ptr, ...) @fprintf(ptr noundef %0, ptr noundef nonnull @.str.6, i32 noundef %4) #11
  %35 = icmp sgt i32 %4, 0
  br i1 %35, label %.lr.ph76.preheader, label %._crit_edge77

.lr.ph76.preheader:                               ; preds = %.critedge
  %wide.trip.count = zext nneg i32 %4 to i64
  br label %.lr.ph76

.lr.ph76:                                         ; preds = %.lr.ph76.preheader, %._crit_edge
  %indvars.iv82 = phi i64 [ 0, %.lr.ph76.preheader ], [ %indvars.iv.next83, %._crit_edge ]
  %36 = getelementptr inbounds nuw ptr, ptr %12, i64 %indvars.iv82
  %37 = load ptr, ptr %36, align 8, !tbaa !56
  %38 = tail call i32 @Cudd_BddToCubeArray(ptr noundef %2, ptr noundef %37, ptr noundef %9) #11
  %.val6371 = load ptr, ptr %13, align 8, !tbaa !38
  %39 = getelementptr i8, ptr %.val6371, i64 4
  %.val63.val72 = load i32, ptr %39, align 4, !tbaa !24
  %40 = icmp sgt i32 %.val63.val72, 0
  br i1 %40, label %.lr.ph74, label %._crit_edge

.lr.ph74:                                         ; preds = %.lr.ph76, %45
  %indvars.iv79 = phi i64 [ %indvars.iv.next80, %45 ], [ 0, %.lr.ph76 ]
  %41 = getelementptr inbounds nuw i32, ptr %9, i64 %indvars.iv79
  %42 = load i32, ptr %41, align 4, !tbaa !33
  %43 = icmp ult i32 %42, 3
  br i1 %43, label %switch.lookup, label %45

switch.lookup:                                    ; preds = %.lr.ph74
  %44 = zext nneg i32 %42 to i64
  %switch.gep = getelementptr inbounds nuw [3 x i32], ptr @switch.table.Io_WriteMoPlaOneIntMintermsM, i64 0, i64 %44
  %switch.load = load i32, ptr %switch.gep, align 4
  %fputc62 = tail call i32 @fputc(i32 %switch.load, ptr %0)
  br label %45

45:                                               ; preds = %.lr.ph74, %switch.lookup
  %indvars.iv.next80 = add nuw nsw i64 %indvars.iv79, 1
  %.val63 = load ptr, ptr %13, align 8, !tbaa !38
  %46 = getelementptr i8, ptr %.val63, i64 4
  %.val63.val = load i32, ptr %46, align 4, !tbaa !24
  %47 = sext i32 %.val63.val to i64
  %48 = icmp slt i64 %indvars.iv.next80, %47
  br i1 %48, label %.lr.ph74, label %._crit_edge, !llvm.loop !89

._crit_edge:                                      ; preds = %45, %.lr.ph76
  %fputc57 = tail call i32 @fputc(i32 32, ptr %0)
  %fputc58 = tail call i32 @fputc(i32 49, ptr %0)
  %fputc59 = tail call i32 @fputc(i32 10, ptr %0)
  %indvars.iv.next83 = add nuw nsw i64 %indvars.iv82, 1
  %exitcond.not = icmp eq i64 %indvars.iv.next83, %wide.trip.count
  br i1 %exitcond.not, label %._crit_edge77, label %.lr.ph76, !llvm.loop !90

._crit_edge77:                                    ; preds = %._crit_edge, %.critedge
  %49 = tail call i64 @fwrite(ptr nonnull @.str.8, i64 3, i64 1, ptr %0)
  %.not = icmp eq ptr %12, null
  br i1 %.not, label %51, label %50

50:                                               ; preds = %._crit_edge77
  tail call void @free(ptr noundef nonnull %12) #11
  br label %51

51:                                               ; preds = %._crit_edge77, %50
  %.not56 = icmp eq ptr %9, null
  br i1 %.not56, label %53, label %52

52:                                               ; preds = %51
  tail call void @free(ptr noundef nonnull %9) #11
  br label %53

53:                                               ; preds = %51, %52
  ret i32 1
}